; Function Attrs: mustprogress nofree norecurse nosync nounwind willreturn memory(read, inaccessiblemem: none) uwtable
define hidden noundef zeroext i1 @_ZN7datalog8mk_slice9is_outputEP4expr(ptr noundef nonnull readonly align 8 captures(none) dereferenceable(168) %0, ptr noundef readonly captures(none) %1) local_unnamed_addr #7 align 2 {
  %3 = getelementptr inbounds nuw i8, ptr %1, i64 4
  %4 = load i32, ptr %3, align 4
  %5 = and i32 %4, 65535
  %6 = icmp eq i32 %5, 1
  br i1 %6, label %7, label %_ZN7datalog8mk_slice9is_outputEj.exit

7:                                                ; preds = %2
  %8 = getelementptr inbounds nuw i8, ptr %1, i64 16
  %9 = load i32, ptr %8, align 8, !tbaa !277
  %10 = getelementptr inbounds nuw i8, ptr %0, i64 56
  %11 = load ptr, ptr %10, align 8, !tbaa !229
  %12 = icmp eq ptr %11, null
  br i1 %12, label %_ZN7datalog8mk_slice9is_outputEj.exit, label %_ZNK6vectorIbLb0EjE4sizeEv.exit.i

_ZNK6vectorIbLb0EjE4sizeEv.exit.i:                ; preds = %7
  %13 = getelementptr inbounds i8, ptr %11, i64 -4
  %14 = load i32, ptr %13, align 4, !tbaa !231
  %15 = icmp ult i32 %9, %14
  br i1 %15, label %16, label %_ZN7datalog8mk_slice9is_outputEj.exit

16:                                               ; preds = %_ZNK6vectorIbLb0EjE4sizeEv.exit.i
  %17 = zext i32 %9 to i64
  %18 = getelementptr inbounds nuw i8, ptr %11, i64 %17
  %19 = load i8, ptr %18, align 1, !tbaa !275, !range !279, !noundef !280
  %20 = trunc nuw i8 %19 to i1
  br i1 %20, label %21, label %_ZN7datalog8mk_slice9is_outputEj.exit

21:                                               ; preds = %16
  %22 = getelementptr inbounds nuw i8, ptr %0, i64 48
  %23 = load ptr, ptr %22, align 8, !tbaa !229
  %24 = getelementptr inbounds nuw i8, ptr %23, i64 %17
  %25 = load i8, ptr %24, align 1, !tbaa !275, !range !279, !noundef !280
  %26 = trunc nuw i8 %25 to i1
  %27 = xor i1 %26, true
  br label %_ZN7datalog8mk_slice9is_outputEj.exit

_ZN7datalog8mk_slice9is_outputEj.exit:            ; preds = %21, %16, %_ZNK6vectorIbLb0EjE4sizeEv.exit.i, %7, %2
  %.0 = phi i1 [ false, %2 ], [ false, %16 ], [ false, %_ZNK6vectorIbLb0EjE4sizeEv.exit.i ], [ %27, %21 ], [ false, %7 ]
  ret i1 %.0
}